target datalayout = "e-m:e-p270:32:32-p271:32:32-p272:64:64-i64:64-i128:128-f80:128-n8:16:32:64-S128"
target triple = "x86_64-pc-linux-gnu"

%struct.CommandQueue = type { ptr, ptr }

@commandQueueLock = internal global ptr null, align 8
@holdEvents = internal global i8 0, align 1
@blockCommandLoopLock = internal global ptr null, align 8
@currentSessionID = internal global i32 0, align 4
@commandQueue = internal global %struct.CommandQueue zeroinitializer, align 8
@.str = private unnamed_addr constant [32 x i8] c"JDWP Event Helper Queue Monitor\00", align 1
@.str.1 = private unnamed_addr constant [37 x i8] c"JDWP Event Helper Completion Monitor\00", align 1
@commandCompleteLock = internal global ptr null, align 8
@.str.2 = private unnamed_addr constant [37 x i8] c"JDWP Event Block CommandLoop Monitor\00", align 1
@.str.3 = private unnamed_addr constant [34 x i8] c"JDWP VM_DEATH CommandLoop Monitor\00", align 1
@vmDeathLock = internal global ptr null, align 8
@.str.4 = private unnamed_addr constant [25 x i8] c"JDWP Event Helper Thread\00", align 1

; Function Attrs: nounwind uwtable
define hidden void @eventHelper_initialize(i8 noundef signext %0) #0 {
  %2 = alloca i8, align 1
  %3 = alloca ptr, align 8
  store i8 %0, ptr %2, align 1
  %4 = load i8, ptr %2, align 1
  %5 = sext i8 %4 to i32
  store i32 %5, ptr @currentSessionID, align 4
  store i8 0, ptr @holdEvents, align 1
  store ptr null, ptr @commandQueue, align 8
  store ptr null, ptr getelementptr inbounds (%struct.CommandQueue, ptr @commandQueue, i32 0, i32 1), align 8
  %6 = call ptr @debugMonitorCreate(ptr noundef @.str)
  store ptr %6, ptr @commandQueueLock, align 8
  %7 = call ptr @debugMonitorCreate(ptr noundef @.str.1)
  store ptr %7, ptr @commandCompleteLock, align 8
  %8 = call ptr @debugMonitorCreate(ptr noundef @.str.2)
  store ptr %8, ptr @blockCommandLoopLock, align 8
  %9 = call ptr @debugMonitorCreate(ptr noundef @.str.3)
  store ptr %9, ptr @vmDeathLock, align 8
  store ptr @commandLoop, ptr %3, align 8
  %10 = load ptr, ptr %3, align 8
  %11 = call i32 @spawnNewThread(ptr noundef %10, ptr noundef null, ptr noundef @.str.4)
  ret void
}