; Function Attrs: nounwind uwtable
define hidden void @eventHelper_initialize(i8 noundef signext %0) local_unnamed_addr #0 {
  %2 = sext i8 %0 to i32
  store i32 %2, ptr @currentSessionID, align 4
  store i1 false, ptr @holdEvents, align 1
  store ptr null, ptr @commandQueue.0, align 8
  store ptr null, ptr @commandQueue.1, align 8
  %3 = tail call ptr @debugMonitorCreate(ptr noundef nonnull @.str) #9
  store ptr %3, ptr @commandQueueLock, align 8
  %4 = tail call ptr @debugMonitorCreate(ptr noundef nonnull @.str.1) #9
  store ptr %4, ptr @commandCompleteLock, align 8
  %5 = tail call ptr @debugMonitorCreate(ptr noundef nonnull @.str.2) #9
  store ptr %5, ptr @blockCommandLoopLock, align 8
  %6 = tail call ptr @debugMonitorCreate(ptr noundef nonnull @.str.3) #9
  store ptr %6, ptr @vmDeathLock, align 8
  %7 = tail call i32 @spawnNewThread(ptr noundef nonnull @commandLoop, ptr noundef null, ptr noundef nonnull @.str.4) #9
  ret void
}